; Function Attrs: mustprogress uwtable
define i32 @ulocale_getKeywordValue_77(ptr noundef %0, ptr noundef %1, i32 noundef %2, ptr noundef %3, i32 noundef %4, ptr noundef %5) local_unnamed_addr #1 personality ptr @__gxx_personality_v0 {
  %7 = alloca %"class.icu_77::StringPiece", align 8
  %8 = alloca %"class.icu_77::CheckedArrayByteSink", align 8
  %9 = load i32, ptr %5, align 4, !tbaa !13
  %10 = icmp slt i32 %9, 1
  br i1 %10, label %11, label %"_ZN6icu_7712ByteSinkUtil28viaByteSinkToTerminatedCharsIZ26ulocale_getKeywordValue_77E3$_0vEEiPciOT_R10UErrorCode.exit"

11:                                               ; preds = %6
  %12 = icmp eq ptr %0, null
  br i1 %12, label %13, label %14

13:                                               ; preds = %11
  store i32 1, ptr %5, align 4, !tbaa !13
  br label %"_ZN6icu_7712ByteSinkUtil28viaByteSinkToTerminatedCharsIZ26ulocale_getKeywordValue_77E3$_0vEEiPciOT_R10UErrorCode.exit"

14:                                               ; preds = %11
  call void @llvm.lifetime.start.p0(i64 32, ptr nonnull %8) #14
  call void @_ZN6icu_7720CheckedArrayByteSinkC1EPci(ptr noundef nonnull align 8 dereferenceable(29) %8, ptr noundef %3, i32 noundef %4)
  call void @llvm.lifetime.start.p0(i64 16, ptr nonnull %7)
  %15 = icmp slt i32 %2, 0
  br i1 %15, label %16, label %17

16:                                               ; preds = %14
  invoke void @_ZN6icu_7711StringPieceC1EPKc(ptr noundef nonnull align 8 dereferenceable(12) %7, ptr noundef %1)
          to label %.noexc.i unwind label %25

.noexc.i:                                         ; preds = %16
  %.pre.i.i = load ptr, ptr %7, align 8
  %.phi.trans.insert.i.i = getelementptr inbounds nuw i8, ptr %7, i64 8
  %.pre3.i.i = load i32, ptr %.phi.trans.insert.i.i, align 8
  br label %19

17:                                               ; preds = %14
  store ptr %1, ptr %7, align 8, !tbaa !15
  %18 = getelementptr inbounds nuw i8, ptr %7, i64 8
  store i32 %2, ptr %18, align 8, !tbaa !17
  br label %19

19:                                               ; preds = %17, %.noexc.i
  %20 = phi i32 [ %2, %17 ], [ %.pre3.i.i, %.noexc.i ]
  %21 = phi ptr [ %1, %17 ], [ %.pre.i.i, %.noexc.i ]
  invoke void @_ZNK6icu_776Locale15getKeywordValueENS_11StringPieceERNS_8ByteSinkER10UErrorCode(ptr noundef nonnull align 8 dereferenceable(217) %0, ptr %21, i32 %20, ptr noundef nonnull align 8 dereferenceable(8) %8, ptr noundef nonnull align 4 dereferenceable(4) %5)
          to label %22 unwind label %25

22:                                               ; preds = %19
  call void @llvm.lifetime.end.p0(i64 16, ptr nonnull %7)
  %23 = load i32, ptr %5, align 4, !tbaa !13
  %24 = icmp slt i32 %23, 1
  br i1 %24, label %27, label %37

25:                                               ; preds = %19, %16
  %26 = landingpad { ptr, i32 }
          cleanup
  br label %38

27:                                               ; preds = %22
  %28 = getelementptr inbounds nuw i8, ptr %8, i64 24
  %29 = load i32, ptr %28, align 8, !tbaa !24
  %30 = getelementptr inbounds nuw i8, ptr %8, i64 28
  %31 = load i8, ptr %30, align 4, !tbaa !27
  %.not17.i = icmp eq i8 %31, 0
  br i1 %.not17.i, label %35, label %32

32:                                               ; preds = %27
  store i32 15, ptr %5, align 4, !tbaa !13
  br label %37

33:                                               ; preds = %35
  %34 = landingpad { ptr, i32 }
          cleanup
  br label %38

35:                                               ; preds = %27
  %36 = invoke i32 @u_terminateChars_77(ptr noundef %3, i32 noundef %4, i32 noundef %29, ptr noundef nonnull align 4 dereferenceable(4) %5)
          to label %37 unwind label %33

37:                                               ; preds = %35, %32, %22
  %.1.i = phi i32 [ 0, %22 ], [ %29, %32 ], [ %36, %35 ]
  call void @_ZN6icu_7720CheckedArrayByteSinkD1Ev(ptr noundef nonnull align 8 dereferenceable(29) %8) #14
  call void @llvm.lifetime.end.p0(i64 32, ptr nonnull %8) #14
  br label %"_ZN6icu_7712ByteSinkUtil28viaByteSinkToTerminatedCharsIZ26ulocale_getKeywordValue_77E3$_0vEEiPciOT_R10UErrorCode.exit"

38:                                               ; preds = %33, %25
  %.pn.i = phi { ptr, i32 } [ %34, %33 ], [ %26, %25 ]
  call void @_ZN6icu_7720CheckedArrayByteSinkD1Ev(ptr noundef nonnull align 8 dereferenceable(29) %8) #14
  call void @llvm.lifetime.end.p0(i64 32, ptr nonnull %8) #14
  resume { ptr, i32 } %.pn.i

"_ZN6icu_7712ByteSinkUtil28viaByteSinkToTerminatedCharsIZ26ulocale_getKeywordValue_77E3$_0vEEiPciOT_R10UErrorCode.exit": ; preds = %37, %6, %13
  %.0 = phi i32 [ 0, %13 ], [ 0, %6 ], [ %.1.i, %37 ]
  ret i32 %.0
}